Certificate:
    Data:
        Version: 3 (0x2)
        Serial Number: 86162 (0x15092)
    Signature Algorithm: sha256WithRSAEncryption
        Issuer: C=US, ST=California, L=PA, O=VMware, OU=EUCBU, CN=EUCBU-CA/emailAddress=shariharan@vmware.com
        Validity
            Not Before: Jan 12 00:00:00 1985 GMT
            Not After : Jan 12 00:00:00 1986 GMT
        Subject: C=US, ST=California, O=VMware, OU=EUCBU, CN=djdev2016
        Subject Public Key Info:
            Public Key Algorithm: rsaEncryption
                Public-Key: (2048 bit)
                Modulus:
                    00:a7:e8:2a:2d:c6:69:63:85:1c:a2:5a:d5:81:de:
                    f9:82:e1:ff:95:5a:3e:ba:ec:e9:2e:fc:81:c7:80:
                    f7:a3:6b:8c:52:f4:cf:d3:b6:e3:68:ea:65:b5:bb:
                    d4:39:a1:c7:4d:45:e6:9e:17:29:fc:35:86:67:77:
                    d4:de:a5:50:3d:28:73:fe:69:95:3a:96:c7:b9:08:
                    e1:72:4c:d5:a9:21:07:00:ea:f7:77:72:8b:27:ae:
                    31:ff:0c:f4:ea:3c:dc:b5:8f:6c:ab:5b:e9:a6:e5:
                    01:68:05:6d:b0:51:67:c8:12:64:49:22:04:2c:f5:
                    e5:5e:6b:3e:b8:d5:8a:1d:38:b4:84:d5:d9:4a:5a:
                    ad:29:5b:1d:18:82:67:2e:f1:8b:4e:51:1c:22:a0:
                    ab:90:a6:19:99:6f:bb:b8:45:d1:87:4a:62:61:c5:
                    a3:ee:9c:a3:4d:49:0e:80:11:f6:b1:bf:89:6f:4b:
                    da:1f:6d:b7:45:f1:42:c7:cd:83:5d:82:ed:a3:16:
                    49:2e:98:74:a3:e6:39:18:24:b7:fc:95:9a:d3:b9:
                    6e:a5:8c:f2:39:7a:77:f8:3d:4e:05:a8:44:a5:2c:
                    82:63:82:96:3b:17:65:78:6f:5d:63:c7:8d:4a:fc:
                    75:93:0a:54:22:70:a4:fb:47:72:d4:f9:ba:58:e9:
                    69:ad
                Exponent: 65537 (0x10001)
        X509v3 extensions:
            X509v3 Basic Constraints: 
                CA:FALSE
            X509v3 Key Usage: 
                Digital Signature, Non Repudiation, Key Encipherment
            Netscape Comment: 
                OpenSSL Generated Certificate
            X509v3 Subject Key Identifier: 
                0F:F0:6D:1A:DD:0F:47:00:DD:9F:66:CB:EA:43:BF:08:66:96:52:AE
            X509v3 Authority Key Identifier: 
                keyid:F2:8B:BD:8D:75:72:04:09:F2:64:70:27:A1:3E:05:B4:72:83:A6:76

            X509v3 CRL Distribution Points: 

                Full Name:
                  URI:http://certgentool.eng.vmware.com/eDrive/CertificateGenerator/crl/crl.pem

    Signature Algorithm: sha256WithRSAEncryption
         c6:ad:f4:07:19:3c:7a:3f:28:b0:35:30:57:22:bc:a0:3e:5a:
         52:44:e8:66:31:5a:fa:72:ea:a8:01:d7:6d:0e:74:0b:55:a5:
         64:c6:ae:3b:da:7a:24:a7:b8:17:29:15:72:82:a4:d0:b4:49:
         b5:39:36:c8:3e:d6:67:40:0d:32:84:81:dd:6a:8b:b1:fa:8b:
         d4:ea:73:bf:a7:b8:08:bc:00:da:ae:51:40:64:26:45:cd:75:
         b1:fb:f5:80:dc:81:4d:de:00:4f:aa:e2:59:29:91:a9:d0:6e:
         1d:7c:e0:d8:a8:1c:0f:ef:76:bb:3a:fb:5f:ff:6f:dd:ab:50:
         66:b8:fa:42:c6:88:9a:4b:5b:d3:62:4d:61:85:f2:76:a1:a1:
         b7:9e:13:74:61:fb:cf:10:1a:19:4a:48:d5:35:42:2a:b2:6f:
         85:52:3f:7e:1f:71:20:e6:56:47:bb:e3:3b:e4:e9:15:78:04:
         44:12:42:de:71:8a:b3:68:21:a4:17:7a:ec:20:5e:8a:43:56:
         91:62:3f:2f:58:bf:09:3b:13:b4:c5:d6:0d:61:2a:d0:68:32:
         7b:61:35:5c:6a:27:0a:2c:07:30:d9:c3:f1:0e:da:35:24:61:
         48:cd:09:f7:28:5d:3a:5c:82:de:95:ec:dc:10:1b:f4:37:73:
         e0:e0:25:92:86:e9:d6:3f:e8:2c:6d:2d:73:95:97:01:72:66:
         8c:44:79:48:13:14:4f:78:f4:ff:68:c9:16:0c:9e:bb:18:0b:
         02:f2:c1:0e:0b:e8:08:75:2f:1d:45:e7:c9:f3:fe:84:24:b0:
         98:6b:66:54:60:af:e5:b6:8c:ea:41:14:78:cc:98:30:1c:3d:
         8f:59:7e:01:9c:fe:c3:16:4f:29:7b:f3:c3:8b:b6:2b:15:4d:
         0f:6b:96:1c:fa:2c:da:0b:8f:e6:5f:7b:9e:b4:2e:64:9f:d6:
         16:c1:c4:9d:9b:ee:a9:51:e7:9b:ee:40:9b:59:42:4b:92:8c:
         ea:35:a7:28:42:5d:1d:96:57:a0:25:a0:52:15:f7:42:12:ab:
         ad:60:86:74:63:a2:74:f9:0c:8c:b1:7c:ad:f1:53:6e:4f:1c:
         92:29:6a:48:d3:29:f8:3c:61:07:b4:03:b9:63:a1:98:52:60:
         48:80:21:46:ca:4c:b5:b1:3b:b2:76:b4:7c:f2:2e:c1:d8:92:
         62:ee:e2:af:3d:ec:80:7d:f8:93:59:a7:ec:f8:2d:f9:d0:36:
         3d:47:31:87:34:71:e0:d4:68:39:33:27:e7:ff:b5:5d:56:e9:
         0f:09:52:7c:fd:3d:e5:78:b0:8c:8f:94:a4:f7:52:5f:24:3e:
         2c:79:23:3b:17:f2:1f:cd
-----BEGIN CERTIFICATE-----
MIIFRDCCAyygAwIBAgIDAVCSMA0GCSqGSIb3DQEBCwUAMIGJMQswCQYDVQQGEwJV
UzETMBEGA1UECAwKQ2FsaWZvcm5pYTELMAkGA1UEBwwCUEExDzANBgNVBAoMBlZN
d2FyZTEOMAwGA1UECwwFRVVDQlUxETAPBgNVBAMMCEVVQ0JVLUNBMSQwIgYJKoZI
hvcNAQkBFhVzaGFyaWhhcmFuQHZtd2FyZS5jb20wHhgNMTk4NTAxMTIwMDAwWhgN
MTk4NjAxMTIwMDAwWjBXMQswCQYDVQQGEwJVUzETMBEGA1UECAwKQ2FsaWZvcm5p
YTEPMA0GA1UECgwGVk13YXJlMQ4wDAYDVQQLDAVFVUNCVTESMBAGA1UEAwwJZGpk
ZXYyMDE2MIIBIjANBgkqhkiG9w0BAQEFAAOCAQ8AMIIBCgKCAQEAp+gqLcZpY4Uc
olrVgd75guH/lVo+uuzpLvyBx4D3o2uMUvTP07bjaOpltbvUOaHHTUXmnhcp/DWG
Z3fU3qVQPShz/mmVOpbHuQjhckzVqSEHAOr3d3KLJ64x/wz06jzctY9sq1vppuUB
aAVtsFFnyBJkSSIELPXlXms+uNWKHTi0hNXZSlqtKVsdGIJnLvGLTlEcIqCrkKYZ
mW+7uEXRh0piYcWj7pyjTUkOgBH2sb+Jb0vaH223RfFCx82DXYLtoxZJLph0o+Y5
GCS3/JWa07lupYzyOXp3+D1OBahEpSyCY4KWOxdleG9dY8eNSvx1kwpUInCk+0dy
1Pm6WOlprQIDAQABo4HlMIHiMAkGA1UdEwQCMAAwCwYDVR0PBAQDAgXgMCwGCWCG
SAGG+EIBDQQfFh1PcGVuU1NMIEdlbmVyYXRlZCBDZXJ0aWZpY2F0ZTAdBgNVHQ4E
FgQUD/BtGt0PRwDdn2bL6kO/CGaWUq4wHwYDVR0jBBgwFoAU8ou9jXVyBAnyZHAn
oT4FtHKDpnYwWgYDVR0fBFMwUTBPoE2gS4ZJaHR0cDovL2NlcnRnZW50b29sLmVu
Zy52bXdhcmUuY29tL2VEcml2ZS9DZXJ0aWZpY2F0ZUdlbmVyYXRvci9jcmwvY3Js
LnBlbTANBgkqhkiG9w0BAQsFAAOCAgEAxq30Bxk8ej8osDUwVyK8oD5aUkToZjFa
+nLqqAHXbQ50C1WlZMauO9p6JKe4FykVcoKk0LRJtTk2yD7WZ0ANMoSB3WqLsfqL
1Opzv6e4CLwA2q5RQGQmRc11sfv1gNyBTd4AT6riWSmRqdBuHXzg2KgcD+92uzr7
X/9v3atQZrj6QsaImktb02JNYYXydqGht54TdGH7zxAaGUpI1TVCKrJvhVI/fh9x
IOZWR7vjO+TpFXgERBJC3nGKs2ghpBd67CBeikNWkWI/L1i/CTsTtMXWDWEq0Ggy
e2E1XGonCiwHMNnD8Q7aNSRhSM0J9yhdOlyC3pXs3BAb9Ddz4OAlkobp1j/oLG0t
c5WXAXJmjER5SBMUT3j0/2jJFgyeuxgLAvLBDgvoCHUvHUXnyfP+hCSwmGtmVGCv
5baM6kEUeMyYMBw9j1l+AZz+wxZPKXvzw4u2KxVND2uWHPos2guP5l97nrQuZJ/W
FsHEnZvuqVHnm+5Am1lCS5KM6jWnKEJdHZZXoCWgUhX3QhKrrWCGdGOidPkMjLF8
rfFTbk8ckilqSNMp+DxhB7QDuWOhmFJgSIAhRspMtbE7sna0fPIuwdiSYu7irz3s
gH34k1mn7Pgt+dA2PUcxhzRx4NRoOTMn5/+1XVbpDwlSfP095XiwjI+UpPdSXyQ+
LHkjOxfyH80=
-----END CERTIFICATE-----
